target datalayout = "e-m:e-p270:32:32-p271:32:32-p272:64:64-i64:64-i128:128-f80:128-n8:16:32:64-S128"
target triple = "x86_64-pc-linux-gnu"

%struct.OnigEncodingTypeST = type { ptr, ptr, i32, i32, ptr, ptr, ptr, ptr, ptr, ptr, ptr, ptr, ptr, ptr, ptr, ptr, ptr, ptr, ptr, i32, i32, i32 }

; Function Attrs: nounwind uwtable
define internal i32 @scan_hexadecimal_number(ptr noundef %0, ptr noundef %1, i32 noundef %2, i32 noundef %3, ptr noundef %4, ptr noundef %5) #0 {
  %7 = alloca i32, align 4
  %8 = alloca ptr, align 8
  %9 = alloca ptr, align 8
  %10 = alloca i32, align 4
  %11 = alloca i32, align 4
  %12 = alloca ptr, align 8
  %13 = alloca ptr, align 8
  %14 = alloca i32, align 4
  %15 = alloca i32, align 4
  %16 = alloca i32, align 4
  %17 = alloca i32, align 4
  %18 = alloca ptr, align 8
  %19 = alloca ptr, align 8
  %20 = alloca i32, align 4
  store ptr %0, ptr %8, align 8, !tbaa !181
  store ptr %1, ptr %9, align 8, !tbaa !4
  store i32 %2, ptr %10, align 4, !tbaa !10
  store i32 %3, ptr %11, align 4, !tbaa !10
  store ptr %4, ptr %12, align 8, !tbaa !32
  store ptr %5, ptr %13, align 8, !tbaa !62
  call void @llvm.lifetime.start.p0(i64 4, ptr %14) #8
  call void @llvm.lifetime.start.p0(i64 4, ptr %15) #8
  call void @llvm.lifetime.start.p0(i64 4, ptr %16) #8
  call void @llvm.lifetime.start.p0(i64 4, ptr %17) #8
  call void @llvm.lifetime.start.p0(i64 8, ptr %18) #8
  call void @llvm.lifetime.start.p0(i64 8, ptr %19) #8
  %21 = load ptr, ptr %8, align 8, !tbaa !181
  %22 = load ptr, ptr %21, align 8, !tbaa !4
  store ptr %22, ptr %18, align 8, !tbaa !4
  store i32 0, ptr %14, align 4, !tbaa !10
  store i32 0, ptr %17, align 4, !tbaa !10
  br label %23

23:                                               ; preds = %112, %6
  %24 = load ptr, ptr %18, align 8, !tbaa !4
  %25 = load ptr, ptr %9, align 8, !tbaa !4
  %26 = icmp ult ptr %24, %25
  br i1 %26, label %27, label %28

27:                                               ; preds = %23
  br i1 false, label %33, label %29

28:                                               ; preds = %23
  br i1 true, label %33, label %29

29:                                               ; preds = %28, %27
  %30 = load i32, ptr %17, align 4, !tbaa !10
  %31 = load i32, ptr %11, align 4, !tbaa !10
  %32 = icmp slt i32 %30, %31
  br label %33

33:                                               ; preds = %29, %28, %27
  %34 = phi i1 [ false, %28 ], [ false, %27 ], [ %32, %29 ]
  br i1 %34, label %35, label %113

35:                                               ; preds = %33
  br label %36

36:                                               ; preds = %35
  %37 = load ptr, ptr %12, align 8, !tbaa !32
  %38 = getelementptr inbounds nuw %struct.OnigEncodingTypeST, ptr %37, i32 0, i32 5
  %39 = load ptr, ptr %38, align 8, !tbaa !92
  %40 = load ptr, ptr %18, align 8, !tbaa !4
  %41 = load ptr, ptr %9, align 8, !tbaa !4
  %42 = call i32 %39(ptr noundef %40, ptr noundef %41)
  store i32 %42, ptr %15, align 4, !tbaa !10
  %43 = load ptr, ptr %18, align 8, !tbaa !4
  store ptr %43, ptr %19, align 8, !tbaa !4
  %44 = load ptr, ptr %12, align 8, !tbaa !32
  %45 = getelementptr inbounds nuw %struct.OnigEncodingTypeST, ptr %44, i32 0, i32 0
  %46 = load ptr, ptr %45, align 8, !tbaa !94
  %47 = load ptr, ptr %18, align 8, !tbaa !4
  %48 = call i32 %46(ptr noundef %47)
  %49 = load ptr, ptr %18, align 8, !tbaa !4
  %50 = sext i32 %48 to i64
  %51 = getelementptr inbounds i8, ptr %49, i64 %50
  store ptr %51, ptr %18, align 8, !tbaa !4
  br label %52

52:                                               ; preds = %36
  br label %53

53:                                               ; preds = %52
  %54 = load i32, ptr %15, align 4, !tbaa !10
  %55 = icmp ult i32 %54, 128
  br i1 %55, label %56, label %110

56:                                               ; preds = %53
  %57 = load ptr, ptr %12, align 8, !tbaa !32
  %58 = getelementptr inbounds nuw %struct.OnigEncodingTypeST, ptr %57, i32 0, i32 12
  %59 = load ptr, ptr %58, align 8, !tbaa !198
  %60 = load i32, ptr %15, align 4, !tbaa !10
  %61 = call i32 %59(i32 noundef %60, i32 noundef 11)
  %62 = icmp ne i32 %61, 0
  br i1 %62, label %63, label %110

63:                                               ; preds = %56
  %64 = load i32, ptr %17, align 4, !tbaa !10
  %65 = add nsw i32 %64, 1
  store i32 %65, ptr %17, align 4, !tbaa !10
  %66 = load i32, ptr %15, align 4, !tbaa !10
  %67 = icmp ult i32 %66, 128
  br i1 %67, label %68, label %78

68:                                               ; preds = %63
  %69 = load ptr, ptr %12, align 8, !tbaa !32
  %70 = getelementptr inbounds nuw %struct.OnigEncodingTypeST, ptr %69, i32 0, i32 12
  %71 = load ptr, ptr %70, align 8, !tbaa !198
  %72 = load i32, ptr %15, align 4, !tbaa !10
  %73 = call i32 %71(i32 noundef %72, i32 noundef 4)
  %74 = icmp ne i32 %73, 0
  br i1 %74, label %75, label %78

75:                                               ; preds = %68
  %76 = load i32, ptr %15, align 4, !tbaa !10
  %77 = sub i32 %76, 48
  br label %95

78:                                               ; preds = %68, %63
  %79 = load ptr, ptr %12, align 8, !tbaa !32
  %80 = getelementptr inbounds nuw %struct.OnigEncodingTypeST, ptr %79, i32 0, i32 12
  %81 = load ptr, ptr %80, align 8, !tbaa !198
  %82 = load i32, ptr %15, align 4, !tbaa !10
  %83 = call i32 %81(i32 noundef %82, i32 noundef 10)
  %84 = icmp ne i32 %83, 0
  br i1 %84, label %85, label %89

85:                                               ; preds = %78
  %86 = load i32, ptr %15, align 4, !tbaa !10
  %87 = sub i32 %86, 65
  %88 = add i32 %87, 10
  br label %93

89:                                               ; preds = %78
  %90 = load i32, ptr %15, align 4, !tbaa !10
  %91 = sub i32 %90, 97
  %92 = add i32 %91, 10
  br label %93

93:                                               ; preds = %89, %85
  %94 = phi i32 [ %88, %85 ], [ %92, %89 ]
  br label %95

95:                                               ; preds = %93, %75
  %96 = phi i32 [ %77, %75 ], [ %94, %93 ]
  store i32 %96, ptr %16, align 4, !tbaa !10
  %97 = load i32, ptr %16, align 4, !tbaa !10
  %98 = sub i32 -1, %97
  %99 = zext i32 %98 to i64
  %100 = udiv i64 %99, 16
  %101 = load i32, ptr %14, align 4, !tbaa !10
  %102 = zext i32 %101 to i64
  %103 = icmp ult i64 %100, %102
  br i1 %103, label %104, label %105

104:                                              ; preds = %95
  store i32 -200, ptr %7, align 4
  store i32 1, ptr %20, align 4
  br label %123

105:                                              ; preds = %95
  %106 = load i32, ptr %14, align 4, !tbaa !10
  %107 = shl i32 %106, 4
  %108 = load i32, ptr %16, align 4, !tbaa !10
  %109 = add i32 %107, %108
  store i32 %109, ptr %14, align 4, !tbaa !10
  br label %112

110:                                              ; preds = %56, %53
  %111 = load ptr, ptr %19, align 8, !tbaa !4
  store ptr %111, ptr %18, align 8, !tbaa !4
  br label %113

112:                                              ; preds = %105
  br label %23, !llvm.loop !211

113:                                              ; preds = %110, %33
  %114 = load i32, ptr %17, align 4, !tbaa !10
  %115 = load i32, ptr %10, align 4, !tbaa !10
  %116 = icmp slt i32 %114, %115
  br i1 %116, label %117, label %118

117:                                              ; preds = %113
  store i32 -400, ptr %7, align 4
  store i32 1, ptr %20, align 4
  br label %123

118:                                              ; preds = %113
  %119 = load i32, ptr %14, align 4, !tbaa !10
  %120 = load ptr, ptr %13, align 8, !tbaa !62
  store i32 %119, ptr %120, align 4, !tbaa !10
  %121 = load ptr, ptr %18, align 8, !tbaa !4
  %122 = load ptr, ptr %8, align 8, !tbaa !181
  store ptr %121, ptr %122, align 8, !tbaa !4
  store i32 0, ptr %7, align 4
  store i32 1, ptr %20, align 4
  br label %123

123:                                              ; preds = %118, %117, %104
  call void @llvm.lifetime.end.p0(i64 8, ptr %19) #8
  call void @llvm.lifetime.end.p0(i64 8, ptr %18) #8
  call void @llvm.lifetime.end.p0(i64 4, ptr %17) #8
  call void @llvm.lifetime.end.p0(i64 4, ptr %16) #8
  call void @llvm.lifetime.end.p0(i64 4, ptr %15) #8
  call void @llvm.lifetime.end.p0(i64 4, ptr %14) #8
  %124 = load i32, ptr %7, align 4
  ret i32 %124
}