; Function Attrs: nounwind uwtable
define internal fastcc range(i32 -400, 1) i32 @scan_hexadecimal_number(ptr noundef nonnull captures(none) %0, ptr noundef %1, i32 noundef range(i32 0, 9) %2, i32 noundef range(i32 2, 9) %3, ptr noundef readonly captures(none) %4, ptr noundef nonnull writeonly captures(none) %5) unnamed_addr #2 {
  %7 = load ptr, ptr %0, align 8, !tbaa !149
  %8 = icmp ult ptr %7, %1
  br i1 %8, label %.lr.ph, label %._crit_edge

.lr.ph:                                           ; preds = %6
  %9 = getelementptr inbounds nuw i8, ptr %4, i64 32
  %10 = getelementptr inbounds nuw i8, ptr %4, i64 88
  br label %11

11:                                               ; preds = %.lr.ph, %34
  %.03547 = phi ptr [ %7, %.lr.ph ], [ %17, %34 ]
  %.03646 = phi i32 [ 0, %.lr.ph ], [ %23, %34 ]
  %.03745 = phi i32 [ 0, %.lr.ph ], [ %36, %34 ]
  %12 = load ptr, ptr %9, align 8, !tbaa !80
  %13 = tail call i32 %12(ptr noundef %.03547, ptr noundef nonnull %1) #24
  %14 = load ptr, ptr %4, align 8, !tbaa !82
  %15 = tail call i32 %14(ptr noundef %.03547) #24
  %16 = sext i32 %15 to i64
  %17 = getelementptr inbounds i8, ptr %.03547, i64 %16
  %18 = icmp ult i32 %13, 128
  br i1 %18, label %19, label %._crit_edge

19:                                               ; preds = %11
  %20 = load ptr, ptr %10, align 8, !tbaa !170
  %21 = tail call i32 %20(i32 noundef %13, i32 noundef 11) #24
  %.not = icmp eq i32 %21, 0
  br i1 %.not, label %._crit_edge, label %22

22:                                               ; preds = %19
  %23 = add nuw nsw i32 %.03646, 1
  %24 = load ptr, ptr %10, align 8, !tbaa !170
  %25 = tail call i32 %24(i32 noundef %13, i32 noundef 4) #24
  %.not40 = icmp eq i32 %25, 0
  br i1 %.not40, label %26, label %29

26:                                               ; preds = %22
  %27 = load ptr, ptr %10, align 8, !tbaa !170
  %28 = tail call i32 %27(i32 noundef %13, i32 noundef 10) #24
  %.not41 = icmp eq i32 %28, 0
  %. = select i1 %.not41, i32 -87, i32 -55
  br label %29

29:                                               ; preds = %26, %22
  %.sink = phi i32 [ -48, %22 ], [ %., %26 ]
  %30 = add nsw i32 %13, %.sink
  %31 = xor i32 %30, -1
  %32 = lshr i32 %31, 4
  %33 = icmp ult i32 %32, %.03745
  br i1 %33, label %.loopexit, label %34

34:                                               ; preds = %29
  %35 = shl nuw i32 %.03745, 4
  %36 = add i32 %30, %35
  %37 = icmp ult ptr %17, %1
  %38 = icmp samesign ult i32 %23, %3
  %39 = select i1 %37, i1 %38, i1 false
  br i1 %39, label %11, label %._crit_edge, !llvm.loop !182

._crit_edge:                                      ; preds = %34, %19, %11, %6
  %.037.lcssa = phi i32 [ 0, %6 ], [ %.03745, %11 ], [ %.03745, %19 ], [ %36, %34 ]
  %.036.lcssa = phi i32 [ 0, %6 ], [ %.03646, %11 ], [ %.03646, %19 ], [ %23, %34 ]
  %.035.lcssa = phi ptr [ %7, %6 ], [ %.03547, %11 ], [ %.03547, %19 ], [ %17, %34 ]
  %40 = icmp samesign ult i32 %.036.lcssa, %2
  br i1 %40, label %.loopexit, label %41

41:                                               ; preds = %._crit_edge
  store i32 %.037.lcssa, ptr %5, align 4, !tbaa !8
  store ptr %.035.lcssa, ptr %0, align 8, !tbaa !149
  br label %.loopexit

.loopexit:                                        ; preds = %29, %._crit_edge, %41
  %.0 = phi i32 [ 0, %41 ], [ -400, %._crit_edge ], [ -200, %29 ]
  ret i32 %.0
}